; Function Attrs: nounwind uwtable
define ptr @l_Lean_PersistentHashMap_findD___rarg(ptr noundef %0, ptr noundef %1, ptr noundef %2, ptr noundef %3, ptr noundef %4) local_unnamed_addr #2 {
  %6 = ptrtoint ptr %3 to i64
  %7 = and i64 %6, 1
  %.not.i13 = icmp eq i64 %7, 0
  br i1 %.not.i13, label %8, label %lean_inc.exit.i

8:                                                ; preds = %5
  %.val.i.i = load i32, ptr %3, align 4, !tbaa !4
  %9 = icmp sgt i32 %.val.i.i, 0
  br i1 %9, label %10, label %12, !prof !11

10:                                               ; preds = %8
  %11 = add nuw i32 %.val.i.i, 1
  store i32 %11, ptr %3, align 4, !tbaa !4
  br label %lean_inc.exit.i

12:                                               ; preds = %8
  %.not.i10.i = icmp eq i32 %.val.i.i, 0
  br i1 %.not.i10.i, label %lean_inc.exit.i, label %13

13:                                               ; preds = %12
  tail call void @lean_inc_ref_cold(ptr noundef nonnull %3) #7
  br label %lean_inc.exit.i

lean_inc.exit.i:                                  ; preds = %13, %12, %10, %5
  %14 = tail call ptr @lean_apply_1(ptr noundef %1, ptr noundef %3) #7
  %15 = getelementptr i8, ptr %14, i64 8
  %.val.i = load i64, ptr %15, align 8, !tbaa !12
  %16 = ptrtoint ptr %14 to i64
  %17 = and i64 %16, 1
  %.not11.i = icmp eq i64 %17, 0
  br i1 %.not11.i, label %18, label %l_Lean_PersistentHashMap_find_x3f___rarg.exit

18:                                               ; preds = %lean_inc.exit.i
  %19 = load i32, ptr %14, align 4, !tbaa !4
  %20 = icmp sgt i32 %19, 1
  br i1 %20, label %21, label %23, !prof !11

21:                                               ; preds = %18
  %22 = add nsw i32 %19, -1
  store i32 %22, ptr %14, align 4, !tbaa !4
  br label %l_Lean_PersistentHashMap_find_x3f___rarg.exit

23:                                               ; preds = %18
  %.not.i.i = icmp eq i32 %19, 0
  br i1 %.not.i.i, label %l_Lean_PersistentHashMap_find_x3f___rarg.exit, label %24

24:                                               ; preds = %23
  tail call void @lean_dec_ref_cold(ptr noundef nonnull %14) #7
  br label %l_Lean_PersistentHashMap_find_x3f___rarg.exit

l_Lean_PersistentHashMap_find_x3f___rarg.exit:    ; preds = %lean_inc.exit.i, %21, %23, %24
  %25 = tail call ptr @l_Lean_PersistentHashMap_findAux___rarg(ptr noundef %0, ptr noundef %2, i64 noundef %.val.i, ptr noundef %3)
  %26 = ptrtoint ptr %25 to i64
  %27 = and i64 %26, 1
  %.not.i14 = icmp eq i64 %27, 0
  br i1 %.not.i14, label %31, label %28

28:                                               ; preds = %l_Lean_PersistentHashMap_find_x3f___rarg.exit
  %29 = lshr i64 %26, 1
  %30 = trunc i64 %29 to i32
  br label %lean_obj_tag.exit

31:                                               ; preds = %l_Lean_PersistentHashMap_find_x3f___rarg.exit
  %32 = getelementptr i8, ptr %25, i64 4
  %.val.i15 = load i32, ptr %32, align 4
  %33 = lshr i32 %.val.i15, 24
  br label %lean_obj_tag.exit

lean_obj_tag.exit:                                ; preds = %28, %31
  %.0.i = phi i32 [ %30, %28 ], [ %33, %31 ]
  %34 = icmp eq i32 %.0.i, 0
  br i1 %34, label %35, label %44

35:                                               ; preds = %lean_obj_tag.exit
  %36 = ptrtoint ptr %4 to i64
  %37 = and i64 %36, 1
  %.not22 = icmp eq i64 %37, 0
  br i1 %.not22, label %38, label %lean_inc.exit12

38:                                               ; preds = %35
  %.val.i16 = load i32, ptr %4, align 4, !tbaa !4
  %39 = icmp sgt i32 %.val.i16, 0
  br i1 %39, label %40, label %42, !prof !11

40:                                               ; preds = %38
  %41 = add nuw i32 %.val.i16, 1
  store i32 %41, ptr %4, align 4, !tbaa !4
  br label %lean_inc.exit12

42:                                               ; preds = %38
  %.not.i17 = icmp eq i32 %.val.i16, 0
  br i1 %.not.i17, label %lean_inc.exit12, label %43

43:                                               ; preds = %42
  tail call void @lean_inc_ref_cold(ptr noundef nonnull %4) #7
  br label %lean_inc.exit12

44:                                               ; preds = %lean_obj_tag.exit
  %45 = getelementptr inbounds nuw i8, ptr %25, i64 8
  %46 = load ptr, ptr %45, align 8, !tbaa !9
  %47 = ptrtoint ptr %46 to i64
  %48 = and i64 %47, 1
  %.not = icmp eq i64 %48, 0
  br i1 %.not, label %49, label %lean_inc.exit

49:                                               ; preds = %44
  %.val.i18 = load i32, ptr %46, align 4, !tbaa !4
  %50 = icmp sgt i32 %.val.i18, 0
  br i1 %50, label %51, label %53, !prof !11

51:                                               ; preds = %49
  %52 = add nuw i32 %.val.i18, 1
  store i32 %52, ptr %46, align 4, !tbaa !4
  br label %lean_inc.exit

53:                                               ; preds = %49
  %.not.i19 = icmp eq i32 %.val.i18, 0
  br i1 %.not.i19, label %lean_inc.exit, label %54

54:                                               ; preds = %53
  tail call void @lean_inc_ref_cold(ptr noundef nonnull %46) #7
  br label %lean_inc.exit

lean_inc.exit:                                    ; preds = %54, %53, %51, %44
  br i1 %.not.i14, label %55, label %lean_inc.exit12

55:                                               ; preds = %lean_inc.exit
  %56 = load i32, ptr %25, align 4, !tbaa !4
  %57 = icmp sgt i32 %56, 1
  br i1 %57, label %58, label %60, !prof !11

58:                                               ; preds = %55
  %59 = add nsw i32 %56, -1
  store i32 %59, ptr %25, align 4, !tbaa !4
  br label %lean_inc.exit12

60:                                               ; preds = %55
  %.not.i = icmp eq i32 %56, 0
  br i1 %.not.i, label %lean_inc.exit12, label %61

61:                                               ; preds = %60
  tail call void @lean_dec_ref_cold(ptr noundef nonnull %25) #7
  br label %lean_inc.exit12

lean_inc.exit12:                                  ; preds = %lean_inc.exit, %58, %60, %61, %35, %40, %42, %43
  %.0 = phi ptr [ %4, %43 ], [ %4, %42 ], [ %4, %40 ], [ %4, %35 ], [ %46, %61 ], [ %46, %60 ], [ %46, %58 ], [ %46, %lean_inc.exit ]
  ret ptr %.0
}